; Function Attrs: nounwind sspstrong uwtable
define internal void @virtio_scsi_drained_end(ptr noundef %bus) #0 {
entry:
  %add.ptr = getelementptr i8, ptr %bus, i64 -664
  %call.i = tail call ptr @object_dynamic_cast_assert(ptr noundef %add.ptr, ptr noundef nonnull @.str.3, ptr noundef nonnull @.str.4, i32 noundef 85, ptr noundef nonnull @__func__.VIRTIO_DEVICE) #13
  %conf = getelementptr i8, ptr %bus, i64 -144
  %0 = load i32, ptr %conf, align 8
  %add = add i32 %0, 2
  %dataplane_stopping = getelementptr i8, ptr %bus, i64 186
  %1 = load i8, ptr %dataplane_stopping, align 2
  %tobool = trunc i8 %1 to i1
  br i1 %tobool, label %for.end, label %lor.lhs.false

lor.lhs.false:                                    ; preds = %entry
  %dataplane_started = getelementptr i8, ptr %bus, i64 184
  %2 = load i8, ptr %dataplane_started, align 8
  %tobool1 = trunc i8 %2 to i1
  %cmp7 = icmp ne i32 %add, 0
  %or.cond = select i1 %tobool1, i1 %cmp7, i1 false
  br i1 %or.cond, label %for.body.lr.ph, label %for.end

for.body.lr.ph:                                   ; preds = %lor.lhs.false
  %ctx = getelementptr i8, ptr %bus, i64 176
  br label %for.body

for.body:                                         ; preds = %for.body.lr.ph, %for.body
  %i.08 = phi i32 [ 0, %for.body.lr.ph ], [ %inc, %for.body ]
  %call2 = tail call ptr @virtio_get_queue(ptr noundef %call.i, i32 noundef %i.08) #13
  %3 = load ptr, ptr %ctx, align 8
  tail call void @virtio_queue_aio_attach_host_notifier(ptr noundef %call2, ptr noundef %3) #13
  %inc = add nuw i32 %i.08, 1
  %exitcond.not = icmp eq i32 %inc, %add
  br i1 %exitcond.not, label %for.end, label %for.body, !llvm.loop !24

for.end:                                          ; preds = %for.body, %entry, %lor.lhs.false
  ret void
}